target datalayout = "e-m:e-p270:32:32-p271:32:32-p272:64:64-i64:64-i128:128-f80:128-n8:16:32:64-S128"
target triple = "x86_64-pc-linux-gnu"

%struct.ItemPointerData = type { %struct.BlockIdData, i16 }
%struct.BlockIdData = type { i16, i16 }
%struct.ScanKeyData = type { i32, i16, i16, i32, i32, %struct.FmgrInfo, i64 }
%struct.FmgrInfo = type { ptr, i32, i16, i8, i8, i8, ptr, ptr, ptr }
%struct.IndexScanDescData = type { ptr, ptr, ptr, i32, i32, ptr, ptr, i8, i8, i8, i8, i8, ptr, ptr, ptr, ptr, ptr, %struct.ItemPointerData, i8, ptr, i8, ptr, ptr, i8, ptr }
%struct.BTScanOpaqueData = type { i8, i32, ptr, i32, i8, i8, i8, ptr, ptr, ptr, ptr, i32, ptr, ptr, i32, %struct.BTScanPosData, %struct.BTScanPosData }
%struct.BTScanPosData = type { i32, i32, i32, i32, i64, i32, i32, i8, i8, i32, i32, i32, [1358 x %struct.BTScanPosItem] }
%struct.BTScanPosItem = type { %struct.ItemPointerData, i16, i16 }

; Function Attrs: inlinehint nounwind uwtable
define internal i32 @DatumGetInt32(i64 noundef %0) #2 {
  %2 = alloca i64, align 8
  store i64 %0, ptr %2, align 8
  %3 = load i64, ptr %2, align 8
  %4 = trunc i64 %3 to i32
  ret i32 %4
}

; Function Attrs: inlinehint nounwind uwtable
define internal i32 @_bt_compare_array_skey(ptr noundef %0, i64 noundef %1, i1 noundef zeroext %2, i64 noundef %3, ptr noundef %4) #2 {
  %6 = alloca ptr, align 8
  %7 = alloca i64, align 8
  %8 = alloca i8, align 1
  %9 = alloca i64, align 8
  %10 = alloca ptr, align 8
  %11 = alloca i32, align 4
  store ptr %0, ptr %6, align 8
  store i64 %1, ptr %7, align 8
  %12 = zext i1 %2 to i8
  store i8 %12, ptr %8, align 1
  store i64 %3, ptr %9, align 8
  store ptr %4, ptr %10, align 8
  call void @llvm.lifetime.start.p0(i64 4, ptr %11) #8
  store i32 0, ptr %11, align 4
  %13 = load i8, ptr %8, align 1, !range !4, !noundef !5
  %14 = trunc i8 %13 to i1
  br i1 %14, label %15, label %32

15:                                               ; preds = %5
  %16 = load ptr, ptr %10, align 8
  %17 = getelementptr inbounds nuw %struct.ScanKeyData, ptr %16, i32 0, i32 0
  %18 = load i32, ptr %17, align 8
  %19 = and i32 %18, 1
  %20 = icmp ne i32 %19, 0
  br i1 %20, label %21, label %22

21:                                               ; preds = %15
  store i32 0, ptr %11, align 4
  br label %31

22:                                               ; preds = %15
  %23 = load ptr, ptr %10, align 8
  %24 = getelementptr inbounds nuw %struct.ScanKeyData, ptr %23, i32 0, i32 0
  %25 = load i32, ptr %24, align 8
  %26 = and i32 %25, 33554432
  %27 = icmp ne i32 %26, 0
  br i1 %27, label %28, label %29

28:                                               ; preds = %22
  store i32 -1, ptr %11, align 4
  br label %30

29:                                               ; preds = %22
  store i32 1, ptr %11, align 4
  br label %30

30:                                               ; preds = %29, %28
  br label %31

31:                                               ; preds = %30, %21
  br label %72

32:                                               ; preds = %5
  %33 = load ptr, ptr %10, align 8
  %34 = getelementptr inbounds nuw %struct.ScanKeyData, ptr %33, i32 0, i32 0
  %35 = load i32, ptr %34, align 8
  %36 = and i32 %35, 1
  %37 = icmp ne i32 %36, 0
  br i1 %37, label %38, label %47

38:                                               ; preds = %32
  %39 = load ptr, ptr %10, align 8
  %40 = getelementptr inbounds nuw %struct.ScanKeyData, ptr %39, i32 0, i32 0
  %41 = load i32, ptr %40, align 8
  %42 = and i32 %41, 33554432
  %43 = icmp ne i32 %42, 0
  br i1 %43, label %44, label %45

44:                                               ; preds = %38
  store i32 1, ptr %11, align 4
  br label %46

45:                                               ; preds = %38
  store i32 -1, ptr %11, align 4
  br label %46

46:                                               ; preds = %45, %44
  br label %71

47:                                               ; preds = %32
  %48 = load ptr, ptr %6, align 8
  %49 = load ptr, ptr %10, align 8
  %50 = getelementptr inbounds nuw %struct.ScanKeyData, ptr %49, i32 0, i32 4
  %51 = load i32, ptr %50, align 4
  %52 = load i64, ptr %7, align 8
  %53 = load i64, ptr %9, align 8
  %54 = call i64 @FunctionCall2Coll(ptr noundef %48, i32 noundef %51, i64 noundef %52, i64 noundef %53)
  %55 = call i32 @DatumGetInt32(i64 noundef %54)
  store i32 %55, ptr %11, align 4
  %56 = load ptr, ptr %10, align 8
  %57 = getelementptr inbounds nuw %struct.ScanKeyData, ptr %56, i32 0, i32 0
  %58 = load i32, ptr %57, align 8
  %59 = and i32 %58, 16777216
  %60 = icmp ne i32 %59, 0
  br i1 %60, label %61, label %70

61:                                               ; preds = %47
  %62 = load i32, ptr %11, align 4
  %63 = icmp slt i32 %62, 0
  br i1 %63, label %64, label %65

64:                                               ; preds = %61
  br label %68

65:                                               ; preds = %61
  %66 = load i32, ptr %11, align 4
  %67 = sub i32 0, %66
  br label %68

68:                                               ; preds = %65, %64
  %69 = phi i32 [ 1, %64 ], [ %67, %65 ]
  store i32 %69, ptr %11, align 4
  br label %70

70:                                               ; preds = %68, %47
  br label %71

71:                                               ; preds = %70, %46
  br label %72

72:                                               ; preds = %71, %31
  %73 = load i32, ptr %11, align 4
  call void @llvm.lifetime.end.p0(i64 4, ptr %11) #8
  ret i32 %73
}

; Function Attrs: nounwind uwtable
define internal zeroext i1 @_bt_tuple_before_array_skeys(ptr noundef %0, i32 noundef %1, ptr noundef %2, ptr noundef %3, i32 noundef %4, i1 noundef zeroext %5, i32 noundef %6, ptr noundef %7) #0 {
  %9 = alloca i1, align 1
  %10 = alloca ptr, align 8
  %11 = alloca i32, align 4
  %12 = alloca ptr, align 8
  %13 = alloca ptr, align 8
  %14 = alloca i32, align 4
  %15 = alloca i8, align 1
  %16 = alloca i32, align 4
  %17 = alloca ptr, align 8
  %18 = alloca ptr, align 8
  %19 = alloca i32, align 4
  %20 = alloca i32, align 4
  %21 = alloca ptr, align 8
  %22 = alloca i64, align 8
  %23 = alloca i8, align 1
  %24 = alloca i32, align 4
  store ptr %0, ptr %10, align 8
  store i32 %1, ptr %11, align 4
  store ptr %2, ptr %12, align 8
  store ptr %3, ptr %13, align 8
  store i32 %4, ptr %14, align 4
  %25 = zext i1 %5 to i8
  store i8 %25, ptr %15, align 1
  store i32 %6, ptr %16, align 4
  store ptr %7, ptr %17, align 8
  call void @llvm.lifetime.start.p0(i64 8, ptr %18) #8
  %26 = load ptr, ptr %10, align 8
  %27 = getelementptr inbounds nuw %struct.IndexScanDescData, ptr %26, i32 0, i32 12
  %28 = load ptr, ptr %27, align 8
  store ptr %28, ptr %18, align 8
  %29 = load ptr, ptr %17, align 8
  %30 = icmp ne ptr %29, null
  br i1 %30, label %31, label %33

31:                                               ; preds = %8
  %32 = load ptr, ptr %17, align 8
  store i8 0, ptr %32, align 1
  br label %33

33:                                               ; preds = %31, %8
  call void @llvm.lifetime.start.p0(i64 4, ptr %19) #8
  %34 = load i32, ptr %16, align 4
  store i32 %34, ptr %19, align 4
  br label %35

35:                                               ; preds = %124, %33
  %36 = load i32, ptr %19, align 4
  %37 = load ptr, ptr %18, align 8
  %38 = getelementptr inbounds nuw %struct.BTScanOpaqueData, ptr %37, i32 0, i32 1
  %39 = load i32, ptr %38, align 4
  %40 = icmp slt i32 %36, %39
  br i1 %40, label %42, label %41

41:                                               ; preds = %35
  store i32 2, ptr %20, align 4
  br label %127

42:                                               ; preds = %35
  call void @llvm.lifetime.start.p0(i64 8, ptr %21) #8
  %43 = load ptr, ptr %18, align 8
  %44 = getelementptr inbounds nuw %struct.BTScanOpaqueData, ptr %43, i32 0, i32 2
  %45 = load ptr, ptr %44, align 8
  %46 = load i32, ptr %19, align 4
  %47 = sext i32 %46 to i64
  %48 = getelementptr inbounds %struct.ScanKeyData, ptr %45, i64 %47
  store ptr %48, ptr %21, align 8
  call void @llvm.lifetime.start.p0(i64 8, ptr %22) #8
  call void @llvm.lifetime.start.p0(i64 1, ptr %23) #8
  call void @llvm.lifetime.start.p0(i64 4, ptr %24) #8
  %49 = load ptr, ptr %21, align 8
  %50 = getelementptr inbounds nuw %struct.ScanKeyData, ptr %49, i32 0, i32 0
  %51 = load i32, ptr %50, align 8
  %52 = and i32 %51, 196608
  %53 = icmp eq i32 %52, 0
  br i1 %53, label %54, label %55

54:                                               ; preds = %42
  store i1 false, ptr %9, align 1
  store i32 1, ptr %20, align 4
  br label %121

55:                                               ; preds = %42
  %56 = load ptr, ptr %21, align 8
  %57 = getelementptr inbounds nuw %struct.ScanKeyData, ptr %56, i32 0, i32 1
  %58 = load i16, ptr %57, align 4
  %59 = sext i16 %58 to i32
  %60 = load i32, ptr %14, align 4
  %61 = icmp sgt i32 %59, %60
  br i1 %61, label %62, label %68

62:                                               ; preds = %55
  %63 = load ptr, ptr %17, align 8
  %64 = icmp ne ptr %63, null
  br i1 %64, label %65, label %67

65:                                               ; preds = %62
  %66 = load ptr, ptr %17, align 8
  store i8 1, ptr %66, align 1
  br label %67

67:                                               ; preds = %65, %62
  store i1 false, ptr %9, align 1
  store i32 1, ptr %20, align 4
  br label %121

68:                                               ; preds = %55
  %69 = load ptr, ptr %21, align 8
  %70 = getelementptr inbounds nuw %struct.ScanKeyData, ptr %69, i32 0, i32 2
  %71 = load i16, ptr %70, align 2
  %72 = zext i16 %71 to i32
  %73 = icmp ne i32 %72, 3
  br i1 %73, label %74, label %79

74:                                               ; preds = %68
  %75 = load i8, ptr %15, align 1, !range !4, !noundef !5
  %76 = trunc i8 %75 to i1
  br i1 %76, label %77, label %78

77:                                               ; preds = %74
  store i1 false, ptr %9, align 1
  store i32 1, ptr %20, align 4
  br label %121

78:                                               ; preds = %74
  store i32 4, ptr %20, align 4
  br label %121

79:                                               ; preds = %68
  %80 = load ptr, ptr %12, align 8
  %81 = load ptr, ptr %21, align 8
  %82 = getelementptr inbounds nuw %struct.ScanKeyData, ptr %81, i32 0, i32 1
  %83 = load i16, ptr %82, align 4
  %84 = sext i16 %83 to i32
  %85 = load ptr, ptr %13, align 8
  %86 = call i64 @index_getattr(ptr noundef %80, i32 noundef %84, ptr noundef %85, ptr noundef %23)
  store i64 %86, ptr %22, align 8
  %87 = load ptr, ptr %18, align 8
  %88 = getelementptr inbounds nuw %struct.BTScanOpaqueData, ptr %87, i32 0, i32 8
  %89 = load ptr, ptr %88, align 8
  %90 = load i32, ptr %19, align 4
  %91 = sext i32 %90 to i64
  %92 = getelementptr inbounds %struct.FmgrInfo, ptr %89, i64 %91
  %93 = load i64, ptr %22, align 8
  %94 = load i8, ptr %23, align 1, !range !4, !noundef !5
  %95 = trunc i8 %94 to i1
  %96 = load ptr, ptr %21, align 8
  %97 = getelementptr inbounds nuw %struct.ScanKeyData, ptr %96, i32 0, i32 6
  %98 = load i64, ptr %97, align 8
  %99 = load ptr, ptr %21, align 8
  %100 = call i32 @_bt_compare_array_skey(ptr noundef %92, i64 noundef %93, i1 noundef zeroext %95, i64 noundef %98, ptr noundef %99)
  store i32 %100, ptr %24, align 4
  %101 = load i32, ptr %11, align 4
  %102 = icmp eq i32 %101, 1
  br i1 %102, label %103, label %106

103:                                              ; preds = %79
  %104 = load i32, ptr %24, align 4
  %105 = icmp slt i32 %104, 0
  br i1 %105, label %112, label %106

106:                                              ; preds = %103, %79
  %107 = load i32, ptr %11, align 4
  %108 = icmp eq i32 %107, -1
  br i1 %108, label %109, label %113

109:                                              ; preds = %106
  %110 = load i32, ptr %24, align 4
  %111 = icmp sgt i32 %110, 0
  br i1 %111, label %112, label %113

112:                                              ; preds = %109, %103
  store i1 true, ptr %9, align 1
  store i32 1, ptr %20, align 4
  br label %121

113:                                              ; preds = %109, %106
  %114 = load i8, ptr %15, align 1, !range !4, !noundef !5
  %115 = trunc i8 %114 to i1
  br i1 %115, label %119, label %116

116:                                              ; preds = %113
  %117 = load i32, ptr %24, align 4
  %118 = icmp ne i32 %117, 0
  br i1 %118, label %119, label %120

119:                                              ; preds = %116, %113
  store i1 false, ptr %9, align 1
  store i32 1, ptr %20, align 4
  br label %121

120:                                              ; preds = %116
  store i32 0, ptr %20, align 4
  br label %121

121:                                              ; preds = %120, %119, %112, %78, %77, %67, %54
  call void @llvm.lifetime.end.p0(i64 4, ptr %24) #8
  call void @llvm.lifetime.end.p0(i64 1, ptr %23) #8
  call void @llvm.lifetime.end.p0(i64 8, ptr %22) #8
  call void @llvm.lifetime.end.p0(i64 8, ptr %21) #8
  %122 = load i32, ptr %20, align 4
  switch i32 %122, label %127 [
    i32 0, label %123
    i32 4, label %124
  ]

123:                                              ; preds = %121
  br label %124

124:                                              ; preds = %123, %121
  %125 = load i32, ptr %19, align 4
  %126 = add i32 %125, 1
  store i32 %126, ptr %19, align 4
  br label %35, !llvm.loop !12

127:                                              ; preds = %121, %41
  call void @llvm.lifetime.end.p0(i64 4, ptr %19) #8
  %128 = load i32, ptr %20, align 4
  switch i32 %128, label %130 [
    i32 2, label %129
  ]

129:                                              ; preds = %127
  store i1 false, ptr %9, align 1
  store i32 1, ptr %20, align 4
  br label %130

130:                                              ; preds = %129, %127
  call void @llvm.lifetime.end.p0(i64 8, ptr %18) #8
  %131 = load i1, ptr %9, align 1
  ret i1 %131
}