; Function Attrs: nounwind uwtable
define internal fastcc zeroext i1 @_bt_tuple_before_array_skeys(ptr readonly captures(none) %.56.val, i32 noundef %0, ptr noundef %1, ptr noundef %2, i32 noundef %3, i1 noundef zeroext %4, i32 noundef %5, ptr noundef writeonly captures(address_is_null) %6) unnamed_addr #0 {
  %8 = alloca i8, align 1
  %.not = icmp eq ptr %6, null
  br i1 %.not, label %10, label %9

9:                                                ; preds = %7
  store i8 0, ptr %6, align 1
  br label %10

10:                                               ; preds = %9, %7
  %11 = getelementptr inbounds nuw i8, ptr %.56.val, i64 4
  %12 = load i32, ptr %11, align 4
  %.not4415 = icmp slt i32 %5, %12
  br i1 %.not4415, label %.lr.ph, label %.loopexit

.lr.ph:                                           ; preds = %10
  %13 = getelementptr inbounds nuw i8, ptr %.56.val, i64 8
  %14 = getelementptr inbounds nuw i8, ptr %.56.val, i64 32
  %15 = icmp eq i32 %0, 1
  %16 = icmp eq i32 %0, -1
  %17 = sext i32 %5 to i64
  br label %18

18:                                               ; preds = %.lr.ph, %66
  %19 = phi i32 [ %12, %.lr.ph ], [ %67, %66 ]
  %indvars.iv = phi i64 [ %17, %.lr.ph ], [ %indvars.iv.next, %66 ]
  %20 = load ptr, ptr %13, align 8
  %21 = getelementptr inbounds %struct.ScanKeyData, ptr %20, i64 %indvars.iv
  call void @llvm.lifetime.start.p0(i64 1, ptr nonnull %8) #14
  %22 = load i32, ptr %21, align 8
  %23 = and i32 %22, 196608
  %24 = icmp eq i32 %23, 0
  br i1 %24, label %.thread8, label %25

25:                                               ; preds = %18
  %26 = getelementptr inbounds nuw i8, ptr %21, i64 4
  %27 = load i16, ptr %26, align 4
  %28 = sext i16 %27 to i32
  %29 = icmp slt i32 %3, %28
  br i1 %29, label %30, label %32

30:                                               ; preds = %25
  br i1 %.not, label %.thread8, label %31

31:                                               ; preds = %30
  store i8 1, ptr %6, align 1
  br label %.thread8

32:                                               ; preds = %25
  %33 = getelementptr inbounds nuw i8, ptr %21, i64 6
  %34 = load i16, ptr %33, align 2
  %.not43 = icmp eq i16 %34, 3
  br i1 %.not43, label %36, label %35

35:                                               ; preds = %32
  br i1 %4, label %.thread8, label %66

36:                                               ; preds = %32
  %37 = call fastcc i64 @index_getattr(ptr noundef %1, i32 noundef %28, ptr noundef %2, ptr noundef %8)
  %38 = load ptr, ptr %14, align 8
  %39 = getelementptr inbounds %struct.FmgrInfo, ptr %38, i64 %indvars.iv
  %40 = load i8, ptr %8, align 1, !range !4, !noundef !7
  %41 = trunc nuw i8 %40 to i1
  %42 = getelementptr inbounds nuw i8, ptr %21, i64 64
  %43 = load i64, ptr %42, align 8
  %44 = load i32, ptr %21, align 8
  %45 = and i32 %44, 1
  %.not14.i = icmp eq i32 %45, 0
  br i1 %41, label %46, label %49

46:                                               ; preds = %36
  br i1 %.not14.i, label %47, label %.thread

47:                                               ; preds = %46
  %48 = and i32 %44, 33554432
  %.not15.i = icmp eq i32 %48, 0
  %..i = select i1 %.not15.i, i32 1, i32 -1
  br label %_bt_compare_array_skey.exit

49:                                               ; preds = %36
  br i1 %.not14.i, label %52, label %50

50:                                               ; preds = %49
  %51 = and i32 %44, 33554432
  %.not13.i = icmp eq i32 %51, 0
  %.16.i = select i1 %.not13.i, i32 -1, i32 1
  br label %_bt_compare_array_skey.exit

52:                                               ; preds = %49
  %53 = getelementptr inbounds nuw i8, ptr %21, i64 12
  %54 = load i32, ptr %53, align 4
  %55 = tail call i64 @FunctionCall2Coll(ptr noundef %39, i32 noundef %54, i64 noundef %37, i64 noundef %43) #14
  %56 = trunc i64 %55 to i32
  %57 = load i32, ptr %21, align 8
  %58 = and i32 %57, 16777216
  %.not12.i = icmp eq i32 %58, 0
  br i1 %.not12.i, label %_bt_compare_array_skey.exit, label %59

59:                                               ; preds = %52
  %60 = icmp slt i32 %56, 0
  %61 = sub i32 0, %56
  %62 = select i1 %60, i32 1, i32 %61
  br label %_bt_compare_array_skey.exit

_bt_compare_array_skey.exit:                      ; preds = %47, %50, %52, %59
  %.0.i = phi i32 [ %62, %59 ], [ %56, %52 ], [ %..i, %47 ], [ %.16.i, %50 ]
  %63 = icmp slt i32 %.0.i, 0
  %or.cond = select i1 %15, i1 %63, i1 false
  %64 = icmp sgt i32 %.0.i, 0
  %or.cond3 = select i1 %16, i1 %64, i1 false
  %or.cond18 = select i1 %or.cond, i1 true, i1 %or.cond3
  br i1 %or.cond18, label %.thread8, label %.thread

.thread:                                          ; preds = %_bt_compare_array_skey.exit, %46
  %.0.i36 = phi i32 [ 0, %46 ], [ %.0.i, %_bt_compare_array_skey.exit ]
  %65 = icmp ne i32 %.0.i36, 0
  %or.cond5 = select i1 %4, i1 true, i1 %65
  br i1 %or.cond5, label %.thread8, label %.thread._crit_edge

.thread._crit_edge:                               ; preds = %.thread
  %.pre = load i32, ptr %11, align 4
  br label %66

.thread8:                                         ; preds = %18, %_bt_compare_array_skey.exit, %35, %.thread, %31, %30
  %.2.ph = phi i1 [ false, %30 ], [ false, %31 ], [ false, %.thread ], [ false, %35 ], [ false, %18 ], [ true, %_bt_compare_array_skey.exit ]
  call void @llvm.lifetime.end.p0(i64 1, ptr nonnull %8) #14
  br label %.loopexit

66:                                               ; preds = %.thread._crit_edge, %35
  %67 = phi i32 [ %.pre, %.thread._crit_edge ], [ %19, %35 ]
  call void @llvm.lifetime.end.p0(i64 1, ptr nonnull %8) #14
  %indvars.iv.next = add nsw i64 %indvars.iv, 1
  %68 = sext i32 %67 to i64
  %.not44 = icmp slt i64 %indvars.iv.next, %68
  br i1 %.not44, label %18, label %.loopexit, !llvm.loop !13

.loopexit:                                        ; preds = %66, %10, %.thread8
  %.not4413 = phi i1 [ true, %.thread8 ], [ false, %10 ], [ false, %66 ]
  %.1 = phi i1 [ %.2.ph, %.thread8 ], [ undef, %10 ], [ undef, %66 ]
  %spec.select = and i1 %.not4413, %.1
  ret i1 %spec.select
}